target datalayout = "e-m:e-p270:32:32-p271:32:32-p272:64:64-i64:64-i128:128-f80:128-n8:16:32:64-S128"
target triple = "x86_64-pc-linux-gnu"

; Function Attrs: nounwind uwtable
define internal ptr @getnum(ptr noundef %0, ptr noundef %1, i32 noundef %2, i32 noundef %3) #0 {
  %5 = alloca ptr, align 8
  %6 = alloca ptr, align 8
  %7 = alloca ptr, align 8
  %8 = alloca i32, align 4
  %9 = alloca i32, align 4
  %10 = alloca i8, align 1
  %11 = alloca i32, align 4
  %12 = alloca i32, align 4
  store ptr %0, ptr %6, align 8
  store ptr %1, ptr %7, align 8
  store i32 %2, ptr %8, align 4
  store i32 %3, ptr %9, align 4
  call void @llvm.lifetime.start.p0(i64 1, ptr %10) #8
  call void @llvm.lifetime.start.p0(i64 4, ptr %11) #8
  %13 = load ptr, ptr %6, align 8
  %14 = icmp eq ptr %13, null
  br i1 %14, label %21, label %15

15:                                               ; preds = %4
  %16 = load ptr, ptr %6, align 8
  %17 = load i8, ptr %16, align 1
  store i8 %17, ptr %10, align 1
  %18 = sext i8 %17 to i32
  %19 = sub i32 %18, 48
  %20 = icmp ule i32 %19, 9
  br i1 %20, label %22, label %21

21:                                               ; preds = %15, %4
  store ptr null, ptr %5, align 8
  store i32 1, ptr %12, align 4
  br label %52

22:                                               ; preds = %15
  store i32 0, ptr %11, align 4
  br label %23

23:                                               ; preds = %38, %22
  %24 = load i32, ptr %11, align 4
  %25 = mul i32 %24, 10
  %26 = load i8, ptr %10, align 1
  %27 = sext i8 %26 to i32
  %28 = sub i32 %27, 48
  %29 = add i32 %25, %28
  store i32 %29, ptr %11, align 4
  %30 = load i32, ptr %11, align 4
  %31 = load i32, ptr %9, align 4
  %32 = icmp sgt i32 %30, %31
  br i1 %32, label %33, label %34

33:                                               ; preds = %23
  store ptr null, ptr %5, align 8
  store i32 1, ptr %12, align 4
  br label %52

34:                                               ; preds = %23
  %35 = load ptr, ptr %6, align 8
  %36 = getelementptr inbounds nuw i8, ptr %35, i32 1
  store ptr %36, ptr %6, align 8
  %37 = load i8, ptr %36, align 1
  store i8 %37, ptr %10, align 1
  br label %38

38:                                               ; preds = %34
  %39 = load i8, ptr %10, align 1
  %40 = sext i8 %39 to i32
  %41 = sub i32 %40, 48
  %42 = icmp ule i32 %41, 9
  br i1 %42, label %23, label %43, !llvm.loop !50

43:                                               ; preds = %38
  %44 = load i32, ptr %11, align 4
  %45 = load i32, ptr %8, align 4
  %46 = icmp slt i32 %44, %45
  br i1 %46, label %47, label %48

47:                                               ; preds = %43
  store ptr null, ptr %5, align 8
  store i32 1, ptr %12, align 4
  br label %52

48:                                               ; preds = %43
  %49 = load i32, ptr %11, align 4
  %50 = load ptr, ptr %7, align 8
  store i32 %49, ptr %50, align 4
  %51 = load ptr, ptr %6, align 8
  store ptr %51, ptr %5, align 8
  store i32 1, ptr %12, align 4
  br label %52

52:                                               ; preds = %48, %47, %33, %21
  call void @llvm.lifetime.end.p0(i64 4, ptr %11) #8
  call void @llvm.lifetime.end.p0(i64 1, ptr %10) #8
  %53 = load ptr, ptr %5, align 8
  ret ptr %53
}

; Function Attrs: nounwind uwtable
define internal ptr @getsecs(ptr noundef %0, ptr noundef %1) #0 {
  %3 = alloca ptr, align 8
  %4 = alloca ptr, align 8
  %5 = alloca ptr, align 8
  %6 = alloca i32, align 4
  %7 = alloca i32, align 4
  store ptr %0, ptr %4, align 8
  store ptr %1, ptr %5, align 8
  call void @llvm.lifetime.start.p0(i64 4, ptr %6) #8
  %8 = load ptr, ptr %4, align 8
  %9 = call ptr @getnum(ptr noundef %8, ptr noundef %6, i32 noundef 0, i32 noundef 167)
  store ptr %9, ptr %4, align 8
  %10 = load ptr, ptr %4, align 8
  %11 = icmp eq ptr %10, null
  br i1 %11, label %12, label %13

12:                                               ; preds = %2
  store ptr null, ptr %3, align 8
  store i32 1, ptr %7, align 4
  br label %55

13:                                               ; preds = %2
  %14 = load i32, ptr %6, align 4
  %15 = mul i32 %14, 3600
  %16 = load ptr, ptr %5, align 8
  store i32 %15, ptr %16, align 4
  %17 = load ptr, ptr %4, align 8
  %18 = load i8, ptr %17, align 1
  %19 = sext i8 %18 to i32
  %20 = icmp eq i32 %19, 58
  br i1 %20, label %21, label %53

21:                                               ; preds = %13
  %22 = load ptr, ptr %4, align 8
  %23 = getelementptr inbounds nuw i8, ptr %22, i32 1
  store ptr %23, ptr %4, align 8
  %24 = load ptr, ptr %4, align 8
  %25 = call ptr @getnum(ptr noundef %24, ptr noundef %6, i32 noundef 0, i32 noundef 59)
  store ptr %25, ptr %4, align 8
  %26 = load ptr, ptr %4, align 8
  %27 = icmp eq ptr %26, null
  br i1 %27, label %28, label %29

28:                                               ; preds = %21
  store ptr null, ptr %3, align 8
  store i32 1, ptr %7, align 4
  br label %55

29:                                               ; preds = %21
  %30 = load i32, ptr %6, align 4
  %31 = mul i32 %30, 60
  %32 = load ptr, ptr %5, align 8
  %33 = load i32, ptr %32, align 4
  %34 = add i32 %33, %31
  store i32 %34, ptr %32, align 4
  %35 = load ptr, ptr %4, align 8
  %36 = load i8, ptr %35, align 1
  %37 = sext i8 %36 to i32
  %38 = icmp eq i32 %37, 58
  br i1 %38, label %39, label %52

39:                                               ; preds = %29
  %40 = load ptr, ptr %4, align 8
  %41 = getelementptr inbounds nuw i8, ptr %40, i32 1
  store ptr %41, ptr %4, align 8
  %42 = load ptr, ptr %4, align 8
  %43 = call ptr @getnum(ptr noundef %42, ptr noundef %6, i32 noundef 0, i32 noundef 60)
  store ptr %43, ptr %4, align 8
  %44 = load ptr, ptr %4, align 8
  %45 = icmp eq ptr %44, null
  br i1 %45, label %46, label %47

46:                                               ; preds = %39
  store ptr null, ptr %3, align 8
  store i32 1, ptr %7, align 4
  br label %55

47:                                               ; preds = %39
  %48 = load i32, ptr %6, align 4
  %49 = load ptr, ptr %5, align 8
  %50 = load i32, ptr %49, align 4
  %51 = add i32 %50, %48
  store i32 %51, ptr %49, align 4
  br label %52

52:                                               ; preds = %47, %29
  br label %53

53:                                               ; preds = %52, %13
  %54 = load ptr, ptr %4, align 8
  store ptr %54, ptr %3, align 8
  store i32 1, ptr %7, align 4
  br label %55

55:                                               ; preds = %53, %46, %28, %12
  call void @llvm.lifetime.end.p0(i64 4, ptr %6) #8
  %56 = load ptr, ptr %3, align 8
  ret ptr %56
}

; Function Attrs: nounwind uwtable
define internal ptr @getoffset(ptr noundef %0, ptr noundef %1) #0 {
  %3 = alloca ptr, align 8
  %4 = alloca ptr, align 8
  %5 = alloca ptr, align 8
  %6 = alloca i8, align 1
  %7 = alloca i32, align 4
  store ptr %0, ptr %4, align 8
  store ptr %1, ptr %5, align 8
  call void @llvm.lifetime.start.p0(i64 1, ptr %6) #8
  store i8 0, ptr %6, align 1
  %8 = load ptr, ptr %4, align 8
  %9 = load i8, ptr %8, align 1
  %10 = sext i8 %9 to i32
  %11 = icmp eq i32 %10, 45
  br i1 %11, label %12, label %15

12:                                               ; preds = %2
  store i8 1, ptr %6, align 1
  %13 = load ptr, ptr %4, align 8
  %14 = getelementptr inbounds nuw i8, ptr %13, i32 1
  store ptr %14, ptr %4, align 8
  br label %24

15:                                               ; preds = %2
  %16 = load ptr, ptr %4, align 8
  %17 = load i8, ptr %16, align 1
  %18 = sext i8 %17 to i32
  %19 = icmp eq i32 %18, 43
  br i1 %19, label %20, label %23

20:                                               ; preds = %15
  %21 = load ptr, ptr %4, align 8
  %22 = getelementptr inbounds nuw i8, ptr %21, i32 1
  store ptr %22, ptr %4, align 8
  br label %23

23:                                               ; preds = %20, %15
  br label %24

24:                                               ; preds = %23, %12
  %25 = load ptr, ptr %4, align 8
  %26 = load ptr, ptr %5, align 8
  %27 = call ptr @getsecs(ptr noundef %25, ptr noundef %26)
  store ptr %27, ptr %4, align 8
  %28 = load ptr, ptr %4, align 8
  %29 = icmp eq ptr %28, null
  br i1 %29, label %30, label %31

30:                                               ; preds = %24
  store ptr null, ptr %3, align 8
  store i32 1, ptr %7, align 4
  br label %41

31:                                               ; preds = %24
  %32 = load i8, ptr %6, align 1, !range !4, !noundef !5
  %33 = trunc i8 %32 to i1
  br i1 %33, label %34, label %39

34:                                               ; preds = %31
  %35 = load ptr, ptr %5, align 8
  %36 = load i32, ptr %35, align 4
  %37 = sub i32 0, %36
  %38 = load ptr, ptr %5, align 8
  store i32 %37, ptr %38, align 4
  br label %39

39:                                               ; preds = %34, %31
  %40 = load ptr, ptr %4, align 8
  store ptr %40, ptr %3, align 8
  store i32 1, ptr %7, align 4
  br label %41

41:                                               ; preds = %39, %30
  call void @llvm.lifetime.end.p0(i64 1, ptr %6) #8
  %42 = load ptr, ptr %3, align 8
  ret ptr %42
}