; Function Attrs: nofree norecurse nosync nounwind memory(argmem: readwrite) uwtable
define internal fastcc noundef ptr @getoffset(ptr noundef readonly captures(ret: address, provenance) %0, ptr noundef nonnull writeonly captures(none) %1) unnamed_addr #7 {
  %3 = load i8, ptr %0, align 1
  %4 = icmp eq i8 %3, 45
  %5 = icmp eq i8 %3, 43
  %6 = or i1 %4, %5
  %.012.idx = zext i1 %6 to i64
  %.012 = getelementptr inbounds nuw i8, ptr %0, i64 %.012.idx
  %7 = load i8, ptr %.012, align 1
  %8 = sext i8 %7 to i32
  %9 = add nsw i32 %8, -48
  %10 = icmp ult i32 %9, 10
  br i1 %10, label %.preheader.i.i, label %getsecs.exit.thread

.preheader.i.i:                                   ; preds = %2, %16
  %.015.i.i = phi ptr [ %17, %16 ], [ %.012, %2 ]
  %.013.i.i = phi i8 [ %18, %16 ], [ %7, %2 ]
  %.0.i.i = phi i32 [ %14, %16 ], [ 0, %2 ]
  %11 = mul i32 %.0.i.i, 10
  %12 = sext i8 %.013.i.i to i32
  %13 = add nsw i32 %12, -48
  %14 = add i32 %13, %11
  %15 = icmp sgt i32 %14, 167
  br i1 %15, label %getsecs.exit.thread, label %16

16:                                               ; preds = %.preheader.i.i
  %17 = getelementptr inbounds nuw i8, ptr %.015.i.i, i64 1
  %18 = load i8, ptr %17, align 1
  %19 = sext i8 %18 to i32
  %20 = add nsw i32 %19, -48
  %21 = icmp ult i32 %20, 10
  br i1 %21, label %.preheader.i.i, label %22, !llvm.loop !35

22:                                               ; preds = %16
  %23 = icmp slt i32 %14, 0
  br i1 %23, label %getsecs.exit.thread, label %getnum.exit.i

getnum.exit.i:                                    ; preds = %22
  %24 = mul nuw nsw i32 %14, 3600
  store i32 %24, ptr %1, align 4
  %25 = load i8, ptr %17, align 1
  %26 = icmp eq i8 %25, 58
  br i1 %26, label %27, label %getsecs.exit

27:                                               ; preds = %getnum.exit.i
  %28 = getelementptr inbounds nuw i8, ptr %.015.i.i, i64 2
  %29 = load i8, ptr %28, align 1
  %30 = sext i8 %29 to i32
  %31 = add nsw i32 %30, -48
  %32 = icmp ult i32 %31, 10
  br i1 %32, label %.preheader.i20.i, label %getsecs.exit.thread

.preheader.i20.i:                                 ; preds = %27, %38
  %.015.i21.i = phi ptr [ %39, %38 ], [ %28, %27 ]
  %.013.i22.i = phi i8 [ %40, %38 ], [ %29, %27 ]
  %.0.i23.i = phi i32 [ %36, %38 ], [ 0, %27 ]
  %33 = mul i32 %.0.i23.i, 10
  %34 = sext i8 %.013.i22.i to i32
  %35 = add nsw i32 %34, -48
  %36 = add i32 %35, %33
  %37 = icmp sgt i32 %36, 59
  br i1 %37, label %getsecs.exit.thread, label %38

38:                                               ; preds = %.preheader.i20.i
  %39 = getelementptr inbounds nuw i8, ptr %.015.i21.i, i64 1
  %40 = load i8, ptr %39, align 1
  %41 = sext i8 %40 to i32
  %42 = add nsw i32 %41, -48
  %43 = icmp ult i32 %42, 10
  br i1 %43, label %.preheader.i20.i, label %44, !llvm.loop !35

44:                                               ; preds = %38
  %45 = icmp slt i32 %36, 0
  br i1 %45, label %getsecs.exit.thread, label %getnum.exit24.i

getnum.exit24.i:                                  ; preds = %44
  %46 = mul nuw nsw i32 %36, 60
  %47 = add nuw i32 %46, %24
  store i32 %47, ptr %1, align 4
  %48 = load i8, ptr %39, align 1
  %49 = icmp eq i8 %48, 58
  br i1 %49, label %50, label %getsecs.exit

50:                                               ; preds = %getnum.exit24.i
  %51 = getelementptr inbounds nuw i8, ptr %.015.i21.i, i64 2
  %52 = load i8, ptr %51, align 1
  %53 = sext i8 %52 to i32
  %54 = add nsw i32 %53, -48
  %55 = icmp ult i32 %54, 10
  br i1 %55, label %.preheader.i26.i, label %getsecs.exit.thread

.preheader.i26.i:                                 ; preds = %50, %61
  %.015.i27.i = phi ptr [ %62, %61 ], [ %51, %50 ]
  %.013.i28.i = phi i8 [ %63, %61 ], [ %52, %50 ]
  %.0.i29.i = phi i32 [ %59, %61 ], [ 0, %50 ]
  %56 = mul i32 %.0.i29.i, 10
  %57 = sext i8 %.013.i28.i to i32
  %58 = add nsw i32 %57, -48
  %59 = add i32 %58, %56
  %60 = icmp sgt i32 %59, 60
  br i1 %60, label %getsecs.exit.thread, label %61

61:                                               ; preds = %.preheader.i26.i
  %62 = getelementptr inbounds nuw i8, ptr %.015.i27.i, i64 1
  %63 = load i8, ptr %62, align 1
  %64 = sext i8 %63 to i32
  %65 = add nsw i32 %64, -48
  %66 = icmp ult i32 %65, 10
  br i1 %66, label %.preheader.i26.i, label %67, !llvm.loop !35

67:                                               ; preds = %61
  %68 = icmp slt i32 %59, 0
  br i1 %68, label %getsecs.exit.thread, label %getnum.exit30.i

getnum.exit30.i:                                  ; preds = %67
  %69 = add i32 %59, %47
  store i32 %69, ptr %1, align 4
  br label %getsecs.exit

getsecs.exit:                                     ; preds = %getnum.exit.i, %getnum.exit24.i, %getnum.exit30.i
  %70 = phi i32 [ %69, %getnum.exit30.i ], [ %47, %getnum.exit24.i ], [ %24, %getnum.exit.i ]
  %.0.i = phi ptr [ %62, %getnum.exit30.i ], [ %39, %getnum.exit24.i ], [ %17, %getnum.exit.i ]
  br i1 %4, label %71, label %getsecs.exit.thread

71:                                               ; preds = %getsecs.exit
  %72 = sub i32 0, %70
  store i32 %72, ptr %1, align 4
  br label %getsecs.exit.thread

getsecs.exit.thread:                              ; preds = %.preheader.i.i, %.preheader.i20.i, %.preheader.i26.i, %67, %50, %44, %27, %22, %2, %getsecs.exit, %71
  %.0.i18 = phi ptr [ %.0.i, %getsecs.exit ], [ %.0.i, %71 ], [ null, %2 ], [ null, %22 ], [ null, %27 ], [ null, %44 ], [ null, %50 ], [ null, %67 ], [ null, %.preheader.i26.i ], [ null, %.preheader.i20.i ], [ null, %.preheader.i.i ]
  ret ptr %.0.i18
}